target datalayout = "e-m:e-p270:32:32-p271:32:32-p272:64:64-i64:64-i128:128-f80:128-n8:16:32:64-S128"
target triple = "x86_64-pc-linux-gnu"

%struct.OptContext = type { ptr, ptr, %struct.TCGTempSet, %struct.RBRootLeftCached, %struct.anon, i32 }
%struct.TCGTempSet = type { [8 x i64] }
%struct.RBRootLeftCached = type { %struct.RBRoot, ptr }
%struct.RBRoot = type { ptr }
%struct.anon = type { ptr, ptr }
%struct.TCGTemp = type { i64, i64, ptr, i64, ptr, i64, ptr }
%struct.QTailQLink = type { ptr, ptr }
%struct.TCGOp = type { i32, i32, %union.anon.2, [2 x i32], [0 x i64] }
%union.anon.2 = type { %struct.QTailQLink }
%struct.TempOptInfo = type { i8, ptr, ptr, %struct.anon.3, i64, i64, i64 }
%struct.anon.3 = type { ptr, ptr }
%struct.MemCopyInfo = type { %struct.IntervalTreeNode, %struct.anon.4, ptr, i32 }
%struct.IntervalTreeNode = type { %struct.RBNode, i64, i64, i64 }
%struct.RBNode = type { i64, ptr, ptr }
%struct.anon.4 = type { ptr }

@.str = private unnamed_addr constant [23 x i8] c"../qemu/tcg/optimize.c\00", align 1
@__func__.tcg_opt_gen_mov = private unnamed_addr constant [16 x i8] c"tcg_opt_gen_mov\00", align 1

; Function Attrs: inlinehint nounwind sspstrong uwtable
define internal zeroext i1 @ts_is_copy(ptr noundef %0) #3 {
  %2 = alloca ptr, align 8
  store ptr %0, ptr %2, align 8
  %3 = load ptr, ptr %2, align 8
  %4 = call ptr @ts_info(ptr noundef %3)
  %5 = getelementptr inbounds nuw %struct.TempOptInfo, ptr %4, i32 0, i32 2
  %6 = load ptr, ptr %5, align 8
  %7 = load ptr, ptr %2, align 8
  %8 = icmp ne ptr %6, %7
  ret i1 %8
}

; Function Attrs: nounwind sspstrong uwtable
define internal void @move_mem_copies(ptr noundef %0, ptr noundef %1) #0 {
  %3 = alloca ptr, align 8
  %4 = alloca ptr, align 8
  %5 = alloca ptr, align 8
  %6 = alloca ptr, align 8
  %7 = alloca ptr, align 8
  store ptr %0, ptr %3, align 8
  store ptr %1, ptr %4, align 8
  call void @llvm.lifetime.start.p0(i64 8, ptr %5) #13
  %8 = load ptr, ptr %4, align 8
  %9 = call ptr @ts_info(ptr noundef %8)
  store ptr %9, ptr %5, align 8
  call void @llvm.lifetime.start.p0(i64 8, ptr %6) #13
  %10 = load ptr, ptr %3, align 8
  %11 = call ptr @ts_info(ptr noundef %10)
  store ptr %11, ptr %6, align 8
  call void @llvm.lifetime.start.p0(i64 8, ptr %7) #13
  store ptr null, ptr %7, align 8, !annotation !4
  %12 = load ptr, ptr %5, align 8
  %13 = getelementptr inbounds nuw %struct.TempOptInfo, ptr %12, i32 0, i32 3
  %14 = getelementptr inbounds nuw %struct.anon.3, ptr %13, i32 0, i32 0
  %15 = load ptr, ptr %14, align 8
  store ptr %15, ptr %7, align 8
  br label %16

16:                                               ; preds = %33, %2
  %17 = load ptr, ptr %7, align 8
  %18 = icmp ne ptr %17, null
  br i1 %18, label %19, label %38

19:                                               ; preds = %16
  br label %20

20:                                               ; preds = %19
  %21 = load ptr, ptr %7, align 8
  %22 = getelementptr inbounds nuw %struct.MemCopyInfo, ptr %21, i32 0, i32 2
  %23 = load ptr, ptr %22, align 8
  %24 = load ptr, ptr %4, align 8
  %25 = icmp eq ptr %23, %24
  br i1 %25, label %27, label %26

26:                                               ; preds = %20
  unreachable

27:                                               ; preds = %20
  br label %28

28:                                               ; preds = %27
  br label %29

29:                                               ; preds = %28
  %30 = load ptr, ptr %3, align 8
  %31 = load ptr, ptr %7, align 8
  %32 = getelementptr inbounds nuw %struct.MemCopyInfo, ptr %31, i32 0, i32 2
  store ptr %30, ptr %32, align 8
  br label %33

33:                                               ; preds = %29
  %34 = load ptr, ptr %7, align 8
  %35 = getelementptr inbounds nuw %struct.MemCopyInfo, ptr %34, i32 0, i32 1
  %36 = getelementptr inbounds nuw %struct.anon.4, ptr %35, i32 0, i32 0
  %37 = load ptr, ptr %36, align 8
  store ptr %37, ptr %7, align 8
  br label %16, !llvm.loop !17

38:                                               ; preds = %16
  br label %39

39:                                               ; preds = %38
  %40 = load ptr, ptr %5, align 8
  %41 = getelementptr inbounds nuw %struct.TempOptInfo, ptr %40, i32 0, i32 3
  %42 = getelementptr inbounds nuw %struct.anon.3, ptr %41, i32 0, i32 0
  %43 = load ptr, ptr %42, align 8
  %44 = icmp eq ptr %43, null
  br i1 %44, label %73, label %45

45:                                               ; preds = %39
  %46 = load ptr, ptr %5, align 8
  %47 = getelementptr inbounds nuw %struct.TempOptInfo, ptr %46, i32 0, i32 3
  %48 = getelementptr inbounds nuw %struct.anon.3, ptr %47, i32 0, i32 0
  %49 = load ptr, ptr %48, align 8
  %50 = load ptr, ptr %6, align 8
  %51 = getelementptr inbounds nuw %struct.TempOptInfo, ptr %50, i32 0, i32 3
  %52 = getelementptr inbounds nuw %struct.anon.3, ptr %51, i32 0, i32 1
  %53 = load ptr, ptr %52, align 8
  store ptr %49, ptr %53, align 8
  %54 = load ptr, ptr %5, align 8
  %55 = getelementptr inbounds nuw %struct.TempOptInfo, ptr %54, i32 0, i32 3
  %56 = getelementptr inbounds nuw %struct.anon.3, ptr %55, i32 0, i32 1
  %57 = load ptr, ptr %56, align 8
  %58 = load ptr, ptr %6, align 8
  %59 = getelementptr inbounds nuw %struct.TempOptInfo, ptr %58, i32 0, i32 3
  %60 = getelementptr inbounds nuw %struct.anon.3, ptr %59, i32 0, i32 1
  store ptr %57, ptr %60, align 8
  br label %61

61:                                               ; preds = %45
  %62 = load ptr, ptr %5, align 8
  %63 = getelementptr inbounds nuw %struct.TempOptInfo, ptr %62, i32 0, i32 3
  %64 = getelementptr inbounds nuw %struct.anon.3, ptr %63, i32 0, i32 0
  store ptr null, ptr %64, align 8
  %65 = load ptr, ptr %5, align 8
  %66 = getelementptr inbounds nuw %struct.TempOptInfo, ptr %65, i32 0, i32 3
  %67 = getelementptr inbounds nuw %struct.anon.3, ptr %66, i32 0, i32 0
  %68 = load ptr, ptr %5, align 8
  %69 = getelementptr inbounds nuw %struct.TempOptInfo, ptr %68, i32 0, i32 3
  %70 = getelementptr inbounds nuw %struct.anon.3, ptr %69, i32 0, i32 1
  store ptr %67, ptr %70, align 8
  br label %71

71:                                               ; preds = %61
  br label %72

72:                                               ; preds = %71
  br label %73

73:                                               ; preds = %72, %39
  br label %74

74:                                               ; preds = %73
  br label %75

75:                                               ; preds = %74
  call void @llvm.lifetime.end.p0(i64 8, ptr %7) #13
  call void @llvm.lifetime.end.p0(i64 8, ptr %6) #13
  call void @llvm.lifetime.end.p0(i64 8, ptr %5) #13
  ret void
}

; Function Attrs: nounwind sspstrong uwtable
define internal ptr @cmp_better_copy(ptr noundef %0, ptr noundef %1) #0 {
  %3 = alloca ptr, align 8
  %4 = alloca ptr, align 8
  store ptr %0, ptr %3, align 8
  store ptr %1, ptr %4, align 8
  %5 = load ptr, ptr %3, align 8
  %6 = load i64, ptr %5, align 8
  %7 = lshr i64 %6, 32
  %8 = and i64 %7, 7
  %9 = trunc i64 %8 to i32
  %10 = load ptr, ptr %4, align 8
  %11 = load i64, ptr %10, align 8
  %12 = lshr i64 %11, 32
  %13 = and i64 %12, 7
  %14 = trunc i64 %13 to i32
  %15 = icmp slt i32 %9, %14
  br i1 %15, label %16, label %18

16:                                               ; preds = %2
  %17 = load ptr, ptr %4, align 8
  br label %20

18:                                               ; preds = %2
  %19 = load ptr, ptr %3, align 8
  br label %20

20:                                               ; preds = %18, %16
  %21 = phi ptr [ %17, %16 ], [ %19, %18 ]
  ret ptr %21
}

; Function Attrs: inlinehint nounwind sspstrong uwtable
define internal ptr @ts_info(ptr noundef %0) #3 {
  %2 = alloca ptr, align 8
  store ptr %0, ptr %2, align 8
  %3 = load ptr, ptr %2, align 8
  %4 = getelementptr inbounds nuw %struct.TCGTemp, ptr %3, i32 0, i32 6
  %5 = load ptr, ptr %4, align 8
  ret ptr %5
}

; Function Attrs: nounwind sspstrong uwtable
define internal zeroext i1 @ts_are_copies(ptr noundef %0, ptr noundef %1) #0 {
  %3 = alloca i1, align 1
  %4 = alloca ptr, align 8
  %5 = alloca ptr, align 8
  %6 = alloca ptr, align 8
  %7 = alloca i32, align 4
  store ptr %0, ptr %4, align 8
  store ptr %1, ptr %5, align 8
  call void @llvm.lifetime.start.p0(i64 8, ptr %6) #13
  store ptr null, ptr %6, align 8, !annotation !4
  %8 = load ptr, ptr %4, align 8
  %9 = load ptr, ptr %5, align 8
  %10 = icmp eq ptr %8, %9
  br i1 %10, label %11, label %12

11:                                               ; preds = %2
  store i1 true, ptr %3, align 1
  store i32 1, ptr %7, align 4
  br label %40

12:                                               ; preds = %2
  %13 = load ptr, ptr %4, align 8
  %14 = call zeroext i1 @ts_is_copy(ptr noundef %13)
  br i1 %14, label %15, label %18

15:                                               ; preds = %12
  %16 = load ptr, ptr %5, align 8
  %17 = call zeroext i1 @ts_is_copy(ptr noundef %16)
  br i1 %17, label %19, label %18

18:                                               ; preds = %15, %12
  store i1 false, ptr %3, align 1
  store i32 1, ptr %7, align 4
  br label %40

19:                                               ; preds = %15
  %20 = load ptr, ptr %4, align 8
  %21 = call ptr @ts_info(ptr noundef %20)
  %22 = getelementptr inbounds nuw %struct.TempOptInfo, ptr %21, i32 0, i32 2
  %23 = load ptr, ptr %22, align 8
  store ptr %23, ptr %6, align 8
  br label %24

24:                                               ; preds = %34, %19
  %25 = load ptr, ptr %6, align 8
  %26 = load ptr, ptr %4, align 8
  %27 = icmp ne ptr %25, %26
  br i1 %27, label %28, label %39

28:                                               ; preds = %24
  %29 = load ptr, ptr %6, align 8
  %30 = load ptr, ptr %5, align 8
  %31 = icmp eq ptr %29, %30
  br i1 %31, label %32, label %33

32:                                               ; preds = %28
  store i1 true, ptr %3, align 1
  store i32 1, ptr %7, align 4
  br label %40

33:                                               ; preds = %28
  br label %34

34:                                               ; preds = %33
  %35 = load ptr, ptr %6, align 8
  %36 = call ptr @ts_info(ptr noundef %35)
  %37 = getelementptr inbounds nuw %struct.TempOptInfo, ptr %36, i32 0, i32 2
  %38 = load ptr, ptr %37, align 8
  store ptr %38, ptr %6, align 8
  br label %24, !llvm.loop !20

39:                                               ; preds = %24
  store i1 false, ptr %3, align 1
  store i32 1, ptr %7, align 4
  br label %40

40:                                               ; preds = %39, %32, %18, %11
  call void @llvm.lifetime.end.p0(i64 8, ptr %6) #13
  %41 = load i1, ptr %3, align 1
  ret i1 %41
}

; Function Attrs: inlinehint nounwind sspstrong uwtable
define internal ptr @arg_temp(i64 noundef %0) #3 {
  %2 = alloca i64, align 8
  store i64 %0, ptr %2, align 8
  %3 = load i64, ptr %2, align 8
  %4 = inttoptr i64 %3 to ptr
  ret ptr %4
}

; Function Attrs: nounwind sspstrong uwtable
define internal zeroext i1 @tcg_opt_gen_mov(ptr noundef %0, ptr noundef %1, i64 noundef %2, i64 noundef %3) #0 {
  %5 = alloca i1, align 1
  %6 = alloca ptr, align 8
  %7 = alloca ptr, align 8
  %8 = alloca i64, align 8
  %9 = alloca i64, align 8
  %10 = alloca ptr, align 8
  %11 = alloca ptr, align 8
  %12 = alloca ptr, align 8
  %13 = alloca ptr, align 8
  %14 = alloca i32, align 4
  %15 = alloca i32, align 4
  %16 = alloca ptr, align 8
  store ptr %0, ptr %6, align 8
  store ptr %1, ptr %7, align 8
  store i64 %2, ptr %8, align 8
  store i64 %3, ptr %9, align 8
  call void @llvm.lifetime.start.p0(i64 8, ptr %10) #13
  %17 = load i64, ptr %8, align 8
  %18 = call ptr @arg_temp(i64 noundef %17)
  store ptr %18, ptr %10, align 8
  call void @llvm.lifetime.start.p0(i64 8, ptr %11) #13
  %19 = load i64, ptr %9, align 8
  %20 = call ptr @arg_temp(i64 noundef %19)
  store ptr %20, ptr %11, align 8
  call void @llvm.lifetime.start.p0(i64 8, ptr %12) #13
  store ptr null, ptr %12, align 8, !annotation !4
  call void @llvm.lifetime.start.p0(i64 8, ptr %13) #13
  store ptr null, ptr %13, align 8, !annotation !4
  call void @llvm.lifetime.start.p0(i64 4, ptr %14) #13
  store i32 0, ptr %14, align 4, !annotation !4
  %21 = load ptr, ptr %10, align 8
  %22 = load ptr, ptr %11, align 8
  %23 = call zeroext i1 @ts_are_copies(ptr noundef %21, ptr noundef %22)
  br i1 %23, label %24, label %29

24:                                               ; preds = %4
  %25 = load ptr, ptr %6, align 8
  %26 = getelementptr inbounds nuw %struct.OptContext, ptr %25, i32 0, i32 0
  %27 = load ptr, ptr %26, align 8
  %28 = load ptr, ptr %7, align 8
  call void @tcg_op_remove(ptr noundef %27, ptr noundef %28)
  store i1 true, ptr %5, align 1
  store i32 1, ptr %15, align 4
  br label %129

29:                                               ; preds = %4
  %30 = load ptr, ptr %6, align 8
  %31 = load ptr, ptr %10, align 8
  call void @reset_ts(ptr noundef %30, ptr noundef %31)
  %32 = load ptr, ptr %10, align 8
  %33 = call ptr @ts_info(ptr noundef %32)
  store ptr %33, ptr %12, align 8
  %34 = load ptr, ptr %11, align 8
  %35 = call ptr @ts_info(ptr noundef %34)
  store ptr %35, ptr %13, align 8
  %36 = load ptr, ptr %6, align 8
  %37 = getelementptr inbounds nuw %struct.OptContext, ptr %36, i32 0, i32 5
  %38 = load i32, ptr %37, align 8
  switch i32 %38, label %42 [
    i32 0, label %39
    i32 1, label %40
    i32 3, label %41
    i32 4, label %41
    i32 5, label %41
  ]

39:                                               ; preds = %29
  store i32 5, ptr %14, align 4
  br label %46

40:                                               ; preds = %29
  store i32 63, ptr %14, align 4
  br label %46

41:                                               ; preds = %29, %29, %29
  store i32 149, ptr %14, align 4
  br label %46

42:                                               ; preds = %29
  br label %43

43:                                               ; preds = %42
  call void @g_assertion_message_expr(ptr noundef null, ptr noundef @.str, i32 noundef 378, ptr noundef @__func__.tcg_opt_gen_mov, ptr noundef null) #14
  unreachable

44:                                               ; No predecessors!
  br label %45

45:                                               ; preds = %44
  br label %46

46:                                               ; preds = %45, %41, %40, %39
  %47 = load i32, ptr %14, align 4
  %48 = load ptr, ptr %7, align 8
  %49 = load i32, ptr %48, align 8
  %50 = and i32 %47, 255
  %51 = and i32 %49, -256
  %52 = or i32 %51, %50
  store i32 %52, ptr %48, align 8
  %53 = load i64, ptr %8, align 8
  %54 = load ptr, ptr %7, align 8
  %55 = getelementptr inbounds nuw %struct.TCGOp, ptr %54, i32 0, i32 4
  %56 = getelementptr inbounds [0 x i64], ptr %55, i64 0, i64 0
  store i64 %53, ptr %56, align 8
  %57 = load i64, ptr %9, align 8
  %58 = load ptr, ptr %7, align 8
  %59 = getelementptr inbounds nuw %struct.TCGOp, ptr %58, i32 0, i32 4
  %60 = getelementptr inbounds [0 x i64], ptr %59, i64 0, i64 1
  store i64 %57, ptr %60, align 8
  %61 = load ptr, ptr %13, align 8
  %62 = getelementptr inbounds nuw %struct.TempOptInfo, ptr %61, i32 0, i32 5
  %63 = load i64, ptr %62, align 8
  %64 = load ptr, ptr %12, align 8
  %65 = getelementptr inbounds nuw %struct.TempOptInfo, ptr %64, i32 0, i32 5
  store i64 %63, ptr %65, align 8
  %66 = load ptr, ptr %13, align 8
  %67 = getelementptr inbounds nuw %struct.TempOptInfo, ptr %66, i32 0, i32 6
  %68 = load i64, ptr %67, align 8
  %69 = load ptr, ptr %12, align 8
  %70 = getelementptr inbounds nuw %struct.TempOptInfo, ptr %69, i32 0, i32 6
  store i64 %68, ptr %70, align 8
  %71 = load ptr, ptr %11, align 8
  %72 = load i64, ptr %71, align 8
  %73 = lshr i64 %72, 24
  %74 = and i64 %73, 255
  %75 = trunc i64 %74 to i32
  %76 = load ptr, ptr %10, align 8
  %77 = load i64, ptr %76, align 8
  %78 = lshr i64 %77, 24
  %79 = and i64 %78, 255
  %80 = trunc i64 %79 to i32
  %81 = icmp eq i32 %75, %80
  br i1 %81, label %82, label %128

82:                                               ; preds = %46
  call void @llvm.lifetime.start.p0(i64 8, ptr %16) #13
  %83 = load ptr, ptr %13, align 8
  %84 = getelementptr inbounds nuw %struct.TempOptInfo, ptr %83, i32 0, i32 2
  %85 = load ptr, ptr %84, align 8
  %86 = call ptr @ts_info(ptr noundef %85)
  store ptr %86, ptr %16, align 8
  %87 = load ptr, ptr %13, align 8
  %88 = getelementptr inbounds nuw %struct.TempOptInfo, ptr %87, i32 0, i32 2
  %89 = load ptr, ptr %88, align 8
  %90 = load ptr, ptr %12, align 8
  %91 = getelementptr inbounds nuw %struct.TempOptInfo, ptr %90, i32 0, i32 2
  store ptr %89, ptr %91, align 8
  %92 = load ptr, ptr %11, align 8
  %93 = load ptr, ptr %12, align 8
  %94 = getelementptr inbounds nuw %struct.TempOptInfo, ptr %93, i32 0, i32 1
  store ptr %92, ptr %94, align 8
  %95 = load ptr, ptr %10, align 8
  %96 = load ptr, ptr %16, align 8
  %97 = getelementptr inbounds nuw %struct.TempOptInfo, ptr %96, i32 0, i32 1
  store ptr %95, ptr %97, align 8
  %98 = load ptr, ptr %10, align 8
  %99 = load ptr, ptr %13, align 8
  %100 = getelementptr inbounds nuw %struct.TempOptInfo, ptr %99, i32 0, i32 2
  store ptr %98, ptr %100, align 8
  %101 = load ptr, ptr %13, align 8
  %102 = getelementptr inbounds nuw %struct.TempOptInfo, ptr %101, i32 0, i32 0
  %103 = load i8, ptr %102, align 8, !range !7, !noundef !8
  %104 = trunc i8 %103 to i1
  %105 = load ptr, ptr %12, align 8
  %106 = getelementptr inbounds nuw %struct.TempOptInfo, ptr %105, i32 0, i32 0
  %107 = zext i1 %104 to i8
  store i8 %107, ptr %106, align 8
  %108 = load ptr, ptr %13, align 8
  %109 = getelementptr inbounds nuw %struct.TempOptInfo, ptr %108, i32 0, i32 4
  %110 = load i64, ptr %109, align 8
  %111 = load ptr, ptr %12, align 8
  %112 = getelementptr inbounds nuw %struct.TempOptInfo, ptr %111, i32 0, i32 4
  store i64 %110, ptr %112, align 8
  %113 = load ptr, ptr %13, align 8
  %114 = getelementptr inbounds nuw %struct.TempOptInfo, ptr %113, i32 0, i32 3
  %115 = getelementptr inbounds nuw %struct.anon.3, ptr %114, i32 0, i32 0
  %116 = load ptr, ptr %115, align 8
  %117 = icmp eq ptr %116, null
  br i1 %117, label %127, label %118

118:                                              ; preds = %82
  %119 = load ptr, ptr %11, align 8
  %120 = load ptr, ptr %10, align 8
  %121 = call ptr @cmp_better_copy(ptr noundef %119, ptr noundef %120)
  %122 = load ptr, ptr %10, align 8
  %123 = icmp eq ptr %121, %122
  br i1 %123, label %124, label %127

124:                                              ; preds = %118
  %125 = load ptr, ptr %10, align 8
  %126 = load ptr, ptr %11, align 8
  call void @move_mem_copies(ptr noundef %125, ptr noundef %126)
  br label %127

127:                                              ; preds = %124, %118, %82
  call void @llvm.lifetime.end.p0(i64 8, ptr %16) #13
  br label %128

128:                                              ; preds = %127, %46
  store i1 true, ptr %5, align 1
  store i32 1, ptr %15, align 4
  br label %129

129:                                              ; preds = %128, %24
  call void @llvm.lifetime.end.p0(i64 4, ptr %14) #13
  call void @llvm.lifetime.end.p0(i64 8, ptr %13) #13
  call void @llvm.lifetime.end.p0(i64 8, ptr %12) #13
  call void @llvm.lifetime.end.p0(i64 8, ptr %11) #13
  call void @llvm.lifetime.end.p0(i64 8, ptr %10) #13
  %130 = load i1, ptr %5, align 1
  ret i1 %130
}