; Function Attrs: nounwind sspstrong uwtable
define internal fastcc void @tcg_opt_gen_mov(ptr noundef nonnull %0, ptr noundef %1, i64 noundef %2, i64 noundef %3) unnamed_addr #0 {
  %5 = inttoptr i64 %2 to ptr
  %6 = inttoptr i64 %3 to ptr
  %7 = icmp eq i64 %2, %3
  br i1 %7, label %ts_are_copies.exit, label %8

8:                                                ; preds = %4
  %9 = getelementptr i8, ptr %5, i64 48
  %.val.i.i = load ptr, ptr %9, align 8
  %10 = getelementptr inbounds nuw i8, ptr %.val.i.i, i64 16
  %11 = load ptr, ptr %10, align 8
  %.not15.i = icmp eq ptr %11, %5
  br i1 %.not15.i, label %.loopexit, label %12

12:                                               ; preds = %8
  %13 = getelementptr i8, ptr %6, i64 48
  %.val.i14.i = load ptr, ptr %13, align 8
  %14 = getelementptr inbounds nuw i8, ptr %.val.i14.i, i64 16
  %15 = load ptr, ptr %14, align 8
  %.not16.i = icmp eq ptr %15, %6
  br i1 %.not16.i, label %.loopexit, label %.lr.ph.i

.lr.ph.i:                                         ; preds = %12, %17
  %.020.i = phi ptr [ %.0.i, %17 ], [ %11, %12 ]
  %16 = icmp eq ptr %.020.i, %6
  br i1 %16, label %ts_are_copies.exit, label %17

17:                                               ; preds = %.lr.ph.i
  %18 = getelementptr i8, ptr %.020.i, i64 48
  %.0.val.i = load ptr, ptr %18, align 8
  %.0.in.i = getelementptr inbounds nuw i8, ptr %.0.val.i, i64 16
  %.0.i = load ptr, ptr %.0.in.i, align 8
  %.not.i = icmp eq ptr %.0.i, %5
  br i1 %.not.i, label %.loopexit, label %.lr.ph.i, !llvm.loop !18

ts_are_copies.exit:                               ; preds = %.lr.ph.i, %4
  %19 = load ptr, ptr %0, align 8
  tail call void @tcg_op_remove(ptr noundef %19, ptr noundef %1) #9
  br label %move_mem_copies.exit

.loopexit:                                        ; preds = %17, %12, %8
  tail call fastcc void @reset_ts(ptr noundef %0, ptr noundef %5)
  %.val45 = load ptr, ptr %9, align 8
  %20 = getelementptr i8, ptr %6, i64 48
  %.val44 = load ptr, ptr %20, align 8
  %21 = getelementptr inbounds nuw i8, ptr %0, i64 112
  %22 = load i32, ptr %21, align 8
  %23 = icmp ult i32 %22, 6
  br i1 %23, label %switch.hole_check, label %24

24:                                               ; preds = %switch.hole_check, %.loopexit
  tail call void @g_assertion_message_expr(ptr noundef null, ptr noundef nonnull @.str, i32 noundef 378, ptr noundef nonnull @__func__.tcg_opt_gen_mov, ptr noundef null) #10
  unreachable

switch.hole_check:                                ; preds = %.loopexit
  %switch.maskindex = trunc nuw i32 %22 to i8
  %switch.shifted = lshr i8 59, %switch.maskindex
  %switch.lobit = trunc i8 %switch.shifted to i1
  br i1 %switch.lobit, label %switch.lookup, label %24

switch.lookup:                                    ; preds = %switch.hole_check
  %25 = zext nneg i32 %22 to i64
  %switch.gep = getelementptr inbounds nuw [6 x i32], ptr @switch.table.tcg_opt_gen_mov, i64 0, i64 %25
  %switch.load = load i32, ptr %switch.gep, align 4
  %26 = load i32, ptr %1, align 8
  %27 = and i32 %26, -256
  %28 = or disjoint i32 %27, %switch.load
  store i32 %28, ptr %1, align 8
  %29 = getelementptr inbounds nuw i8, ptr %1, i64 32
  store i64 %2, ptr %29, align 8
  %30 = getelementptr inbounds nuw i8, ptr %1, i64 40
  store i64 %3, ptr %30, align 8
  %31 = getelementptr inbounds nuw i8, ptr %.val44, i64 48
  %32 = load i64, ptr %31, align 8
  %33 = getelementptr inbounds nuw i8, ptr %.val45, i64 48
  store i64 %32, ptr %33, align 8
  %34 = getelementptr inbounds nuw i8, ptr %.val44, i64 56
  %35 = load i64, ptr %34, align 8
  %36 = getelementptr inbounds nuw i8, ptr %.val45, i64 56
  store i64 %35, ptr %36, align 8
  %37 = load i64, ptr %6, align 8
  %38 = load i64, ptr %5, align 8
  %.unshifted43 = xor i64 %38, %37
  %39 = and i64 %.unshifted43, 4278190080
  %40 = icmp eq i64 %39, 0
  br i1 %40, label %41, label %move_mem_copies.exit

41:                                               ; preds = %switch.lookup
  %42 = getelementptr inbounds nuw i8, ptr %.val44, i64 16
  %43 = load ptr, ptr %42, align 8
  %44 = getelementptr i8, ptr %43, i64 48
  %.val = load ptr, ptr %44, align 8
  %45 = getelementptr inbounds nuw i8, ptr %.val45, i64 16
  store ptr %43, ptr %45, align 8
  %46 = getelementptr inbounds nuw i8, ptr %.val45, i64 8
  store ptr %6, ptr %46, align 8
  %47 = getelementptr inbounds nuw i8, ptr %.val, i64 8
  store ptr %5, ptr %47, align 8
  store ptr %5, ptr %42, align 8
  %48 = load i8, ptr %.val44, align 8, !range !15, !noundef !16
  store i8 %48, ptr %.val45, align 8
  %49 = getelementptr inbounds nuw i8, ptr %.val44, i64 40
  %50 = load i64, ptr %49, align 8
  %51 = getelementptr inbounds nuw i8, ptr %.val45, i64 40
  store i64 %50, ptr %51, align 8
  %52 = getelementptr inbounds nuw i8, ptr %.val44, i64 24
  %53 = load ptr, ptr %52, align 8
  %54 = icmp eq ptr %53, null
  br i1 %54, label %move_mem_copies.exit, label %55

55:                                               ; preds = %41
  %56 = load i64, ptr %6, align 8
  %57 = lshr i64 %56, 32
  %58 = trunc nuw i64 %57 to i32
  %59 = and i32 %58, 7
  %60 = load i64, ptr %5, align 8
  %61 = lshr i64 %60, 32
  %62 = trunc nuw i64 %61 to i32
  %63 = and i32 %62, 7
  %64 = icmp samesign ult i32 %59, %63
  br i1 %64, label %65, label %move_mem_copies.exit

65:                                               ; preds = %55
  %.val18.i = load ptr, ptr %20, align 8
  %.val.i = load ptr, ptr %9, align 8
  %66 = getelementptr inbounds nuw i8, ptr %.val18.i, i64 24
  %.019.i = load ptr, ptr %66, align 8
  %.not20.i = icmp eq ptr %.019.i, null
  br i1 %.not20.i, label %move_mem_copies.exit, label %.lr.ph.i46

.lr.ph.i46:                                       ; preds = %65, %.lr.ph.i46
  %.021.i = phi ptr [ %.0.i47, %.lr.ph.i46 ], [ %.019.i, %65 ]
  %67 = getelementptr inbounds nuw i8, ptr %.021.i, i64 56
  %68 = load ptr, ptr %67, align 8
  %69 = icmp eq ptr %68, %6
  tail call void @llvm.assume(i1 %69)
  store ptr %5, ptr %67, align 8
  %70 = getelementptr inbounds nuw i8, ptr %.021.i, i64 48
  %.0.i47 = load ptr, ptr %70, align 8
  %.not.i48 = icmp eq ptr %.0.i47, null
  br i1 %.not.i48, label %._crit_edge.i, label %.lr.ph.i46, !llvm.loop !11

._crit_edge.i:                                    ; preds = %.lr.ph.i46
  %.pre.i = load ptr, ptr %66, align 8
  %71 = icmp eq ptr %.pre.i, null
  br i1 %71, label %move_mem_copies.exit, label %72

72:                                               ; preds = %._crit_edge.i
  %73 = getelementptr inbounds nuw i8, ptr %.val.i, i64 32
  %74 = load ptr, ptr %73, align 8
  store ptr %.pre.i, ptr %74, align 8
  %75 = getelementptr inbounds nuw i8, ptr %.val18.i, i64 32
  %76 = load ptr, ptr %75, align 8
  store ptr %76, ptr %73, align 8
  store ptr null, ptr %66, align 8
  store ptr %66, ptr %75, align 8
  br label %move_mem_copies.exit

move_mem_copies.exit:                             ; preds = %72, %._crit_edge.i, %65, %switch.lookup, %55, %41, %ts_are_copies.exit
  ret void
}